target datalayout = "e-m:e-p270:32:32-p271:32:32-p272:64:64-i64:64-i128:128-f80:128-n8:16:32:64-S128"
target triple = "x86_64-pc-linux-gnu"

; Function Attrs: inlinehint mustprogress nounwind uwtable
define linkonce_odr noundef float @_ZSt3absf(float noundef %0) #3 comdat {
  %2 = alloca float, align 4
  store float %0, ptr %2, align 4, !tbaa !30
  %3 = load float, ptr %2, align 4, !tbaa !30
  %4 = call float @llvm.fabs.f32(float %3)
  ret float %4
}

; Function Attrs: inlinehint mustprogress nounwind uwtable
define linkonce_odr noundef nonnull align 4 dereferenceable(4) ptr @_ZSt3maxIfERKT_S2_S2_(ptr noundef nonnull align 4 dereferenceable(4) %0, ptr noundef nonnull align 4 dereferenceable(4) %1) #3 comdat {
  %3 = alloca ptr, align 8
  %4 = alloca ptr, align 8
  %5 = alloca ptr, align 8
  store ptr %0, ptr %4, align 8, !tbaa !15
  store ptr %1, ptr %5, align 8, !tbaa !15
  %6 = load ptr, ptr %4, align 8, !tbaa !15
  %7 = load float, ptr %6, align 4, !tbaa !30
  %8 = load ptr, ptr %5, align 8, !tbaa !15
  %9 = load float, ptr %8, align 4, !tbaa !30
  %10 = fcmp olt float %7, %9
  br i1 %10, label %11, label %13

11:                                               ; preds = %2
  %12 = load ptr, ptr %5, align 8, !tbaa !15
  store ptr %12, ptr %3, align 8
  br label %15

13:                                               ; preds = %2
  %14 = load ptr, ptr %4, align 8, !tbaa !15
  store ptr %14, ptr %3, align 8
  br label %15

15:                                               ; preds = %13, %11
  %16 = load ptr, ptr %3, align 8
  ret ptr %16
}

; Function Attrs: inlinehint mustprogress nounwind uwtable
define internal noundef float @_ZN2cvL7normInfIffEET0_PKT_S4_i(ptr noundef %0, ptr noundef %1, i32 noundef %2) #3 {
  %4 = alloca ptr, align 8
  %5 = alloca ptr, align 8
  %6 = alloca i32, align 4
  %7 = alloca float, align 4
  %8 = alloca i32, align 4
  %9 = alloca float, align 4
  %10 = alloca float, align 4
  store ptr %0, ptr %4, align 8, !tbaa !15
  store ptr %1, ptr %5, align 8, !tbaa !15
  store i32 %2, ptr %6, align 4, !tbaa !3
  call void @llvm.lifetime.start.p0(i64 4, ptr %7) #15
  store float 0.000000e+00, ptr %7, align 4, !tbaa !30
  call void @llvm.lifetime.start.p0(i64 4, ptr %8) #15
  store i32 0, ptr %8, align 4, !tbaa !3
  br label %11

11:                                               ; preds = %32, %3
  %12 = load i32, ptr %8, align 4, !tbaa !3
  %13 = load i32, ptr %6, align 4, !tbaa !3
  %14 = icmp slt i32 %12, %13
  br i1 %14, label %16, label %15

15:                                               ; preds = %11
  call void @llvm.lifetime.end.p0(i64 4, ptr %8) #15
  br label %35

16:                                               ; preds = %11
  call void @llvm.lifetime.start.p0(i64 4, ptr %9) #15
  %17 = load ptr, ptr %4, align 8, !tbaa !15
  %18 = load i32, ptr %8, align 4, !tbaa !3
  %19 = sext i32 %18 to i64
  %20 = getelementptr inbounds float, ptr %17, i64 %19
  %21 = load float, ptr %20, align 4, !tbaa !30
  %22 = load ptr, ptr %5, align 8, !tbaa !15
  %23 = load i32, ptr %8, align 4, !tbaa !3
  %24 = sext i32 %23 to i64
  %25 = getelementptr inbounds float, ptr %22, i64 %24
  %26 = load float, ptr %25, align 4, !tbaa !30
  %27 = fsub float %21, %26
  store float %27, ptr %9, align 4, !tbaa !30
  call void @llvm.lifetime.start.p0(i64 4, ptr %10) #15
  %28 = load float, ptr %9, align 4, !tbaa !30
  %29 = call noundef float @_ZSt3absf(float noundef %28)
  store float %29, ptr %10, align 4, !tbaa !30
  %30 = call noundef nonnull align 4 dereferenceable(4) ptr @_ZSt3maxIfERKT_S2_S2_(ptr noundef nonnull align 4 dereferenceable(4) %7, ptr noundef nonnull align 4 dereferenceable(4) %10)
  %31 = load float, ptr %30, align 4, !tbaa !30
  store float %31, ptr %7, align 4, !tbaa !30
  call void @llvm.lifetime.end.p0(i64 4, ptr %10) #15
  call void @llvm.lifetime.end.p0(i64 4, ptr %9) #15
  br label %32

32:                                               ; preds = %16
  %33 = load i32, ptr %8, align 4, !tbaa !3
  %34 = add nsw i32 %33, 1
  store i32 %34, ptr %8, align 4, !tbaa !3
  br label %11, !llvm.loop !211

35:                                               ; preds = %15
  %36 = load float, ptr %7, align 4, !tbaa !30
  call void @llvm.lifetime.end.p0(i64 4, ptr %7) #15
  ret float %36
}

; Function Attrs: mustprogress uwtable
define linkonce_odr hidden noundef i32 @_ZN2cv12normDiffInf_IffEEiPKT_S3_PKhPT0_ii(ptr noundef %0, ptr noundef %1, ptr noundef %2, ptr noundef %3, i32 noundef %4, i32 noundef %5) #0 comdat {
  %7 = alloca ptr, align 8
  %8 = alloca ptr, align 8
  %9 = alloca ptr, align 8
  %10 = alloca ptr, align 8
  %11 = alloca i32, align 4
  %12 = alloca i32, align 4
  %13 = alloca float, align 4
  %14 = alloca float, align 4
  %15 = alloca i32, align 4
  %16 = alloca i32, align 4
  %17 = alloca i32, align 4
  %18 = alloca float, align 4
  store ptr %0, ptr %7, align 8, !tbaa !15
  store ptr %1, ptr %8, align 8, !tbaa !15
  store ptr %2, ptr %9, align 8, !tbaa !9
  store ptr %3, ptr %10, align 8, !tbaa !15
  store i32 %4, ptr %11, align 4, !tbaa !3
  store i32 %5, ptr %12, align 4, !tbaa !3
  call void @llvm.lifetime.start.p0(i64 4, ptr %13) #15
  %19 = load ptr, ptr %10, align 8, !tbaa !15
  %20 = load float, ptr %19, align 4, !tbaa !30
  store float %20, ptr %13, align 4, !tbaa !30
  %21 = load ptr, ptr %9, align 8, !tbaa !9
  %22 = icmp ne ptr %21, null
  br i1 %22, label %32, label %23

23:                                               ; preds = %6
  call void @llvm.lifetime.start.p0(i64 4, ptr %14) #15
  %24 = load ptr, ptr %7, align 8, !tbaa !15
  %25 = load ptr, ptr %8, align 8, !tbaa !15
  %26 = load i32, ptr %11, align 4, !tbaa !3
  %27 = load i32, ptr %12, align 4, !tbaa !3
  %28 = mul nsw i32 %26, %27
  %29 = call noundef float @_ZN2cvL7normInfIffEET0_PKT_S4_i(ptr noundef %24, ptr noundef %25, i32 noundef %28)
  store float %29, ptr %14, align 4, !tbaa !30
  %30 = call noundef nonnull align 4 dereferenceable(4) ptr @_ZSt3maxIfERKT_S2_S2_(ptr noundef nonnull align 4 dereferenceable(4) %13, ptr noundef nonnull align 4 dereferenceable(4) %14)
  %31 = load float, ptr %30, align 4, !tbaa !30
  store float %31, ptr %13, align 4, !tbaa !30
  call void @llvm.lifetime.end.p0(i64 4, ptr %14) #15
  br label %83

32:                                               ; preds = %6
  call void @llvm.lifetime.start.p0(i64 4, ptr %15) #15
  store i32 0, ptr %15, align 4, !tbaa !3
  br label %33

33:                                               ; preds = %71, %32
  %34 = load i32, ptr %15, align 4, !tbaa !3
  %35 = load i32, ptr %11, align 4, !tbaa !3
  %36 = icmp slt i32 %34, %35
  br i1 %36, label %38, label %37

37:                                               ; preds = %33
  store i32 2, ptr %16, align 4
  call void @llvm.lifetime.end.p0(i64 4, ptr %15) #15
  br label %82

38:                                               ; preds = %33
  %39 = load ptr, ptr %9, align 8, !tbaa !9
  %40 = load i32, ptr %15, align 4, !tbaa !3
  %41 = sext i32 %40 to i64
  %42 = getelementptr inbounds i8, ptr %39, i64 %41
  %43 = load i8, ptr %42, align 1, !tbaa !24
  %44 = icmp ne i8 %43, 0
  br i1 %44, label %45, label %70

45:                                               ; preds = %38
  call void @llvm.lifetime.start.p0(i64 4, ptr %17) #15
  store i32 0, ptr %17, align 4, !tbaa !3
  br label %46

46:                                               ; preds = %66, %45
  %47 = load i32, ptr %17, align 4, !tbaa !3
  %48 = load i32, ptr %12, align 4, !tbaa !3
  %49 = icmp slt i32 %47, %48
  br i1 %49, label %51, label %50

50:                                               ; preds = %46
  store i32 5, ptr %16, align 4
  call void @llvm.lifetime.end.p0(i64 4, ptr %17) #15
  br label %69

51:                                               ; preds = %46
  call void @llvm.lifetime.start.p0(i64 4, ptr %18) #15
  %52 = load ptr, ptr %7, align 8, !tbaa !15
  %53 = load i32, ptr %17, align 4, !tbaa !3
  %54 = sext i32 %53 to i64
  %55 = getelementptr inbounds float, ptr %52, i64 %54
  %56 = load float, ptr %55, align 4, !tbaa !30
  %57 = load ptr, ptr %8, align 8, !tbaa !15
  %58 = load i32, ptr %17, align 4, !tbaa !3
  %59 = sext i32 %58 to i64
  %60 = getelementptr inbounds float, ptr %57, i64 %59
  %61 = load float, ptr %60, align 4, !tbaa !30
  %62 = fsub float %56, %61
  %63 = call noundef float @_ZSt3absf(float noundef %62)
  store float %63, ptr %18, align 4, !tbaa !30
  %64 = call noundef nonnull align 4 dereferenceable(4) ptr @_ZSt3maxIfERKT_S2_S2_(ptr noundef nonnull align 4 dereferenceable(4) %13, ptr noundef nonnull align 4 dereferenceable(4) %18)
  %65 = load float, ptr %64, align 4, !tbaa !30
  store float %65, ptr %13, align 4, !tbaa !30
  call void @llvm.lifetime.end.p0(i64 4, ptr %18) #15
  br label %66

66:                                               ; preds = %51
  %67 = load i32, ptr %17, align 4, !tbaa !3
  %68 = add nsw i32 %67, 1
  store i32 %68, ptr %17, align 4, !tbaa !3
  br label %46, !llvm.loop !209

69:                                               ; preds = %50
  br label %70

70:                                               ; preds = %69, %38
  br label %71

71:                                               ; preds = %70
  %72 = load i32, ptr %15, align 4, !tbaa !3
  %73 = add nsw i32 %72, 1
  store i32 %73, ptr %15, align 4, !tbaa !3
  %74 = load i32, ptr %12, align 4, !tbaa !3
  %75 = load ptr, ptr %7, align 8, !tbaa !15
  %76 = sext i32 %74 to i64
  %77 = getelementptr inbounds float, ptr %75, i64 %76
  store ptr %77, ptr %7, align 8, !tbaa !15
  %78 = load i32, ptr %12, align 4, !tbaa !3
  %79 = load ptr, ptr %8, align 8, !tbaa !15
  %80 = sext i32 %78 to i64
  %81 = getelementptr inbounds float, ptr %79, i64 %80
  store ptr %81, ptr %8, align 8, !tbaa !15
  br label %33, !llvm.loop !210

82:                                               ; preds = %37
  br label %83

83:                                               ; preds = %82, %23
  %84 = load float, ptr %13, align 4, !tbaa !30
  %85 = load ptr, ptr %10, align 8, !tbaa !15
  store float %84, ptr %85, align 4, !tbaa !30
  store i32 1, ptr %16, align 4
  call void @llvm.lifetime.end.p0(i64 4, ptr %13) #15
  ret i32 0
}

; Function Attrs: mustprogress uwtable
define internal noundef i32 @_ZN2cvL15normDiffInf_32fEPKfS1_PKhPfii(ptr noundef %0, ptr noundef %1, ptr noundef %2, ptr noundef %3, i32 noundef %4, i32 noundef %5) #0 {
  %7 = alloca ptr, align 8
  %8 = alloca ptr, align 8
  %9 = alloca ptr, align 8
  %10 = alloca ptr, align 8
  %11 = alloca i32, align 4
  %12 = alloca i32, align 4
  store ptr %0, ptr %7, align 8, !tbaa !15
  store ptr %1, ptr %8, align 8, !tbaa !15
  store ptr %2, ptr %9, align 8, !tbaa !9
  store ptr %3, ptr %10, align 8, !tbaa !15
  store i32 %4, ptr %11, align 4, !tbaa !3
  store i32 %5, ptr %12, align 4, !tbaa !3
  %13 = load ptr, ptr %7, align 8, !tbaa !15
  %14 = load ptr, ptr %8, align 8, !tbaa !15
  %15 = load ptr, ptr %9, align 8, !tbaa !9
  %16 = load ptr, ptr %10, align 8, !tbaa !15
  %17 = load i32, ptr %11, align 4, !tbaa !3
  %18 = load i32, ptr %12, align 4, !tbaa !3
  %19 = call noundef i32 @_ZN2cv12normDiffInf_IffEEiPKT_S3_PKhPT0_ii(ptr noundef %13, ptr noundef %14, ptr noundef %15, ptr noundef %16, i32 noundef %17, i32 noundef %18)
  ret i32 %19
}